; Function Attrs: mustprogress nounwind uwtable
define dso_local noundef ptr @_ZN4llvm10DILocation18getMergedLocationsENS_8ArrayRefIPS0_EE(ptr readonly %0, i64 %1) local_unnamed_addr #0 align 2 {
  switch i64 %1, label %5 [
    i64 0, label %.loopexit
    i64 1, label %3
  ]

3:                                                ; preds = %2
  %4 = load ptr, ptr %0, align 8
  br label %.loopexit

5:                                                ; preds = %2
  %6 = load ptr, ptr %0, align 8
  %7 = getelementptr inbounds ptr, ptr %0, i64 %1
  br label %8

8:                                                ; preds = %9, %5
  %.pn = phi ptr [ %0, %5 ], [ %.012, %9 ]
  %.011 = phi ptr [ %6, %5 ], [ %11, %9 ]
  %.012 = getelementptr inbounds i8, ptr %.pn, i64 8
  %.not = icmp eq ptr %.012, %7
  br i1 %.not, label %.loopexit, label %9

9:                                                ; preds = %8
  %10 = load ptr, ptr %.012, align 8
  %11 = tail call noundef ptr @_ZN4llvm10DILocation17getMergedLocationEPS0_S1_(ptr noundef %.011, ptr noundef %10)
  %12 = icmp eq ptr %11, null
  br i1 %12, label %.loopexit, label %8

.loopexit:                                        ; preds = %8, %9, %2, %3
  %.0 = phi ptr [ %4, %3 ], [ null, %2 ], [ %.011, %8 ], [ null, %9 ]
  ret ptr %.0
}